target datalayout = "e-m:e-p270:32:32-p271:32:32-p272:64:64-i64:64-i128:128-f80:128-n8:16:32:64-S128"
target triple = "x86_64-pc-linux-gnu"

%struct.SpectralBandReplication = type { i32, i32, i32, i32, i32, i32, i32, %struct.SpectrumParameters, i32, i32, i32, i32, i32, i32, i32, [5 x i32], [2 x i32], [2 x i32], i32, i32, [4 x i8], [2 x %struct.SBRData], %struct.PSContext, [2 x i32], i32, i32, [49 x i16], [25 x i16], [49 x i16], [6 x i16], [30 x i16], i32, [6 x i8], [6 x i8], [32 x [40 x [2 x float]]], [64 x [40 x [2 x float]]], [2 x [2 x [38 x [64 x float]]]], [64 x [2 x float]], [64 x [2 x float]], [8 x [48 x float]], [8 x [48 x float]], [8 x [48 x i8]], [8 x [48 x float]], [8 x [48 x float]], [8 x [48 x float]], [8 x [48 x float]], [5 x [64 x float]], ptr, ptr, ptr, ptr, %struct.SBRDSPContext, %struct.AACSBRContext }
%struct.SpectrumParameters = type { i8, i8, i8, i8, i8, i8 }
%struct.SBRData = type { i32, i32, i32, [9 x i8], i32, [9 x i8], [2 x i8], [2 x [5 x i8]], [48 x i8], i32, [8 x i8], [2304 x float], [1312 x float], i32, [2 x i32], [5 x float], [2 x [32 x [32 x [2 x float]]]], i32, [12 x i8], [2 x [38 x [64 x [2 x float]]]], [42 x [48 x float]], [42 x [48 x float]], [9 x [48 x i8]], [9 x [48 x i8]], [9 x [48 x float]], [3 x [5 x i8]], [3 x [5 x float]], [9 x i8], i8, [3 x i8], i32, i32, [6 x i8], [6 x i8] }
%struct.PSContext = type { %struct.PSCommonContext, [4 x i8], [5 x [44 x [2 x float]]], [91 x [46 x [2 x float]]], [50 x [3 x [37 x [2 x float]]]], [34 x float], [8 x i8], [34 x float], [8 x i8], [34 x float], [8 x i8], [2 x [6 x [34 x float]]], [2 x [6 x [34 x float]]], [2 x [6 x [34 x float]]], [2 x [6 x [34 x float]]], [91 x [32 x [2 x float]]], [91 x [32 x [2 x float]]], [34 x i8], [34 x i8], %struct.PSDSPContext, [8 x i8] }
%struct.PSCommonContext = type { i32, i32, i32, i32, i32, i32, i32, i32, i32, i32, i32, i32, i32, [6 x i32], [5 x [34 x i8]], [5 x [34 x i8]], [5 x [34 x i8]], [5 x [34 x i8]], i32, i32 }
%struct.PSDSPContext = type { ptr, ptr, ptr, ptr, ptr, ptr, [2 x ptr] }
%struct.SBRDSPContext = type { ptr, ptr, ptr, ptr, ptr, ptr, ptr, ptr, ptr, ptr, [4 x ptr] }
%struct.AACSBRContext = type { ptr, ptr, ptr, ptr }

; Function Attrs: nounwind uwtable
define internal i32 @sbr_lf_gen(ptr noundef %0, ptr noundef %1, ptr noundef %2, i32 noundef %3) #3 {
  %5 = alloca ptr, align 8
  %6 = alloca ptr, align 8
  %7 = alloca ptr, align 8
  %8 = alloca i32, align 4
  %9 = alloca i32, align 4
  %10 = alloca i32, align 4
  %11 = alloca i32, align 4
  %12 = alloca i32, align 4
  store ptr %0, ptr %5, align 8, !tbaa !18
  store ptr %1, ptr %6, align 8, !tbaa !145
  store ptr %2, ptr %7, align 8, !tbaa !145
  store i32 %3, ptr %8, align 4, !tbaa !12
  call void @llvm.lifetime.start.p0(i64 4, ptr %9) #12
  call void @llvm.lifetime.start.p0(i64 4, ptr %10) #12
  call void @llvm.lifetime.start.p0(i64 4, ptr %11) #12
  store i32 8, ptr %11, align 4, !tbaa !12
  call void @llvm.lifetime.start.p0(i64 4, ptr %12) #12
  store i32 32, ptr %12, align 4, !tbaa !12
  %13 = load ptr, ptr %6, align 8, !tbaa !145
  call void @llvm.memset.p0.i64(ptr align 4 %13, i8 0, i64 10240, i1 false)
  store i32 0, ptr %10, align 4, !tbaa !12
  br label %14

14:                                               ; preds = %72, %4
  %15 = load i32, ptr %10, align 4, !tbaa !12
  %16 = load ptr, ptr %5, align 8, !tbaa !18
  %17 = getelementptr inbounds nuw %struct.SpectralBandReplication, ptr %16, i32 0, i32 16
  %18 = getelementptr inbounds [2 x i32], ptr %17, i64 0, i64 1
  %19 = load i32, ptr %18, align 4, !tbaa !12
  %20 = icmp ult i32 %15, %19
  br i1 %20, label %21, label %75

21:                                               ; preds = %14
  store i32 8, ptr %9, align 4, !tbaa !12
  br label %22

22:                                               ; preds = %68, %21
  %23 = load i32, ptr %9, align 4, !tbaa !12
  %24 = icmp slt i32 %23, 40
  br i1 %24, label %25, label %71

25:                                               ; preds = %22
  %26 = load ptr, ptr %7, align 8, !tbaa !145
  %27 = load i32, ptr %8, align 4, !tbaa !12
  %28 = sext i32 %27 to i64
  %29 = getelementptr inbounds [32 x [32 x [2 x float]]], ptr %26, i64 %28
  %30 = load i32, ptr %9, align 4, !tbaa !12
  %31 = sub nsw i32 %30, 8
  %32 = sext i32 %31 to i64
  %33 = getelementptr inbounds [32 x [32 x [2 x float]]], ptr %29, i64 0, i64 %32
  %34 = load i32, ptr %10, align 4, !tbaa !12
  %35 = sext i32 %34 to i64
  %36 = getelementptr inbounds [32 x [2 x float]], ptr %33, i64 0, i64 %35
  %37 = getelementptr inbounds [2 x float], ptr %36, i64 0, i64 0
  %38 = load float, ptr %37, align 4, !tbaa !32
  %39 = load ptr, ptr %6, align 8, !tbaa !145
  %40 = load i32, ptr %10, align 4, !tbaa !12
  %41 = sext i32 %40 to i64
  %42 = getelementptr inbounds [40 x [2 x float]], ptr %39, i64 %41
  %43 = load i32, ptr %9, align 4, !tbaa !12
  %44 = sext i32 %43 to i64
  %45 = getelementptr inbounds [40 x [2 x float]], ptr %42, i64 0, i64 %44
  %46 = getelementptr inbounds [2 x float], ptr %45, i64 0, i64 0
  store float %38, ptr %46, align 4, !tbaa !32
  %47 = load ptr, ptr %7, align 8, !tbaa !145
  %48 = load i32, ptr %8, align 4, !tbaa !12
  %49 = sext i32 %48 to i64
  %50 = getelementptr inbounds [32 x [32 x [2 x float]]], ptr %47, i64 %49
  %51 = load i32, ptr %9, align 4, !tbaa !12
  %52 = sub nsw i32 %51, 8
  %53 = sext i32 %52 to i64
  %54 = getelementptr inbounds [32 x [32 x [2 x float]]], ptr %50, i64 0, i64 %53
  %55 = load i32, ptr %10, align 4, !tbaa !12
  %56 = sext i32 %55 to i64
  %57 = getelementptr inbounds [32 x [2 x float]], ptr %54, i64 0, i64 %56
  %58 = getelementptr inbounds [2 x float], ptr %57, i64 0, i64 1
  %59 = load float, ptr %58, align 4, !tbaa !32
  %60 = load ptr, ptr %6, align 8, !tbaa !145
  %61 = load i32, ptr %10, align 4, !tbaa !12
  %62 = sext i32 %61 to i64
  %63 = getelementptr inbounds [40 x [2 x float]], ptr %60, i64 %62
  %64 = load i32, ptr %9, align 4, !tbaa !12
  %65 = sext i32 %64 to i64
  %66 = getelementptr inbounds [40 x [2 x float]], ptr %63, i64 0, i64 %65
  %67 = getelementptr inbounds [2 x float], ptr %66, i64 0, i64 1
  store float %59, ptr %67, align 4, !tbaa !32
  br label %68

68:                                               ; preds = %25
  %69 = load i32, ptr %9, align 4, !tbaa !12
  %70 = add nsw i32 %69, 1
  store i32 %70, ptr %9, align 4, !tbaa !12
  br label %22, !llvm.loop !276

71:                                               ; preds = %22
  br label %72

72:                                               ; preds = %71
  %73 = load i32, ptr %10, align 4, !tbaa !12
  %74 = add nsw i32 %73, 1
  store i32 %74, ptr %10, align 4, !tbaa !12
  br label %14, !llvm.loop !277

75:                                               ; preds = %14
  %76 = load i32, ptr %8, align 4, !tbaa !12
  %77 = sub nsw i32 1, %76
  store i32 %77, ptr %8, align 4, !tbaa !12
  store i32 0, ptr %10, align 4, !tbaa !12
  br label %78

78:                                               ; preds = %138, %75
  %79 = load i32, ptr %10, align 4, !tbaa !12
  %80 = load ptr, ptr %5, align 8, !tbaa !18
  %81 = getelementptr inbounds nuw %struct.SpectralBandReplication, ptr %80, i32 0, i32 16
  %82 = getelementptr inbounds [2 x i32], ptr %81, i64 0, i64 0
  %83 = load i32, ptr %82, align 4, !tbaa !12
  %84 = icmp ult i32 %79, %83
  br i1 %84, label %85, label %141

85:                                               ; preds = %78
  store i32 0, ptr %9, align 4, !tbaa !12
  br label %86

86:                                               ; preds = %134, %85
  %87 = load i32, ptr %9, align 4, !tbaa !12
  %88 = icmp slt i32 %87, 8
  br i1 %88, label %89, label %137

89:                                               ; preds = %86
  %90 = load ptr, ptr %7, align 8, !tbaa !145
  %91 = load i32, ptr %8, align 4, !tbaa !12
  %92 = sext i32 %91 to i64
  %93 = getelementptr inbounds [32 x [32 x [2 x float]]], ptr %90, i64 %92
  %94 = load i32, ptr %9, align 4, !tbaa !12
  %95 = add nsw i32 %94, 32
  %96 = sub nsw i32 %95, 8
  %97 = sext i32 %96 to i64
  %98 = getelementptr inbounds [32 x [32 x [2 x float]]], ptr %93, i64 0, i64 %97
  %99 = load i32, ptr %10, align 4, !tbaa !12
  %100 = sext i32 %99 to i64
  %101 = getelementptr inbounds [32 x [2 x float]], ptr %98, i64 0, i64 %100
  %102 = getelementptr inbounds [2 x float], ptr %101, i64 0, i64 0
  %103 = load float, ptr %102, align 4, !tbaa !32
  %104 = load ptr, ptr %6, align 8, !tbaa !145
  %105 = load i32, ptr %10, align 4, !tbaa !12
  %106 = sext i32 %105 to i64
  %107 = getelementptr inbounds [40 x [2 x float]], ptr %104, i64 %106
  %108 = load i32, ptr %9, align 4, !tbaa !12
  %109 = sext i32 %108 to i64
  %110 = getelementptr inbounds [40 x [2 x float]], ptr %107, i64 0, i64 %109
  %111 = getelementptr inbounds [2 x float], ptr %110, i64 0, i64 0
  store float %103, ptr %111, align 4, !tbaa !32
  %112 = load ptr, ptr %7, align 8, !tbaa !145
  %113 = load i32, ptr %8, align 4, !tbaa !12
  %114 = sext i32 %113 to i64
  %115 = getelementptr inbounds [32 x [32 x [2 x float]]], ptr %112, i64 %114
  %116 = load i32, ptr %9, align 4, !tbaa !12
  %117 = add nsw i32 %116, 32
  %118 = sub nsw i32 %117, 8
  %119 = sext i32 %118 to i64
  %120 = getelementptr inbounds [32 x [32 x [2 x float]]], ptr %115, i64 0, i64 %119
  %121 = load i32, ptr %10, align 4, !tbaa !12
  %122 = sext i32 %121 to i64
  %123 = getelementptr inbounds [32 x [2 x float]], ptr %120, i64 0, i64 %122
  %124 = getelementptr inbounds [2 x float], ptr %123, i64 0, i64 1
  %125 = load float, ptr %124, align 4, !tbaa !32
  %126 = load ptr, ptr %6, align 8, !tbaa !145
  %127 = load i32, ptr %10, align 4, !tbaa !12
  %128 = sext i32 %127 to i64
  %129 = getelementptr inbounds [40 x [2 x float]], ptr %126, i64 %128
  %130 = load i32, ptr %9, align 4, !tbaa !12
  %131 = sext i32 %130 to i64
  %132 = getelementptr inbounds [40 x [2 x float]], ptr %129, i64 0, i64 %131
  %133 = getelementptr inbounds [2 x float], ptr %132, i64 0, i64 1
  store float %125, ptr %133, align 4, !tbaa !32
  br label %134

134:                                              ; preds = %89
  %135 = load i32, ptr %9, align 4, !tbaa !12
  %136 = add nsw i32 %135, 1
  store i32 %136, ptr %9, align 4, !tbaa !12
  br label %86, !llvm.loop !278

137:                                              ; preds = %86
  br label %138

138:                                              ; preds = %137
  %139 = load i32, ptr %10, align 4, !tbaa !12
  %140 = add nsw i32 %139, 1
  store i32 %140, ptr %10, align 4, !tbaa !12
  br label %78, !llvm.loop !279

141:                                              ; preds = %78
  call void @llvm.lifetime.end.p0(i64 4, ptr %12) #12
  call void @llvm.lifetime.end.p0(i64 4, ptr %11) #12
  call void @llvm.lifetime.end.p0(i64 4, ptr %10) #12
  call void @llvm.lifetime.end.p0(i64 4, ptr %9) #12
  ret i32 0
}