; Function Attrs: nofree norecurse nosync nounwind memory(argmem: readwrite) uwtable
define internal noundef i32 @sbr_lf_gen(ptr noundef readonly captures(none) %0, ptr noundef writeonly captures(none) initializes((0, 10240)) %1, ptr noundef readonly captures(none) %2, i32 noundef %3) #12 {
  tail call void @llvm.memset.p0.i64(ptr noundef nonnull align 4 dereferenceable(10240) %1, i8 0, i64 10240, i1 false)
  %5 = getelementptr inbounds nuw i8, ptr %0, i64 88
  %6 = load i32, ptr %5, align 4, !tbaa !10
  %.not = icmp eq i32 %6, 0
  br i1 %.not, label %._crit_edge, label %.preheader41.lr.ph

.preheader41.lr.ph:                               ; preds = %4
  %7 = sext i32 %3 to i64
  %wide.trip.count = zext i32 %6 to i64
  br label %.preheader41

.preheader41:                                     ; preds = %.preheader41.lr.ph, %16
  %indvars.iv49 = phi i64 [ 0, %.preheader41.lr.ph ], [ %indvars.iv.next50, %16 ]
  br label %8

8:                                                ; preds = %.preheader41, %8
  %indvars.iv = phi i64 [ 8, %.preheader41 ], [ %indvars.iv.next, %8 ]
  %9 = add nsw i64 %indvars.iv, -8
  %10 = getelementptr inbounds [32 x [32 x [2 x float]]], ptr %2, i64 %7, i64 %9, i64 %indvars.iv49
  %11 = load float, ptr %10, align 4, !tbaa !26
  %12 = getelementptr inbounds nuw [40 x [2 x float]], ptr %1, i64 %indvars.iv49, i64 %indvars.iv
  store float %11, ptr %12, align 4, !tbaa !26
  %13 = getelementptr inbounds nuw i8, ptr %10, i64 4
  %14 = load float, ptr %13, align 4, !tbaa !26
  %15 = getelementptr inbounds nuw i8, ptr %12, i64 4
  store float %14, ptr %15, align 4, !tbaa !26
  %indvars.iv.next = add nuw nsw i64 %indvars.iv, 1
  %exitcond.not = icmp eq i64 %indvars.iv.next, 40
  br i1 %exitcond.not, label %16, label %8, !llvm.loop !241

16:                                               ; preds = %8
  %indvars.iv.next50 = add nuw nsw i64 %indvars.iv49, 1
  %exitcond52.not = icmp eq i64 %indvars.iv.next50, %wide.trip.count
  br i1 %exitcond52.not, label %._crit_edge, label %.preheader41, !llvm.loop !242

._crit_edge:                                      ; preds = %16, %4
  %17 = getelementptr inbounds nuw i8, ptr %0, i64 84
  %18 = load i32, ptr %17, align 4, !tbaa !10
  %.not47 = icmp eq i32 %18, 0
  br i1 %.not47, label %._crit_edge46, label %.preheader.lr.ph

.preheader.lr.ph:                                 ; preds = %._crit_edge
  %19 = sub nsw i32 1, %3
  %20 = sext i32 %19 to i64
  %wide.trip.count60 = zext i32 %18 to i64
  br label %.preheader

.preheader:                                       ; preds = %.preheader.lr.ph, %29
  %indvars.iv57 = phi i64 [ 0, %.preheader.lr.ph ], [ %indvars.iv.next58, %29 ]
  br label %21

21:                                               ; preds = %.preheader, %21
  %indvars.iv53 = phi i64 [ 0, %.preheader ], [ %indvars.iv.next54, %21 ]
  %22 = or disjoint i64 %indvars.iv53, 24
  %23 = getelementptr inbounds [32 x [32 x [2 x float]]], ptr %2, i64 %20, i64 %22, i64 %indvars.iv57
  %24 = load float, ptr %23, align 4, !tbaa !26
  %25 = getelementptr inbounds nuw [40 x [2 x float]], ptr %1, i64 %indvars.iv57, i64 %indvars.iv53
  store float %24, ptr %25, align 4, !tbaa !26
  %26 = getelementptr inbounds nuw i8, ptr %23, i64 4
  %27 = load float, ptr %26, align 4, !tbaa !26
  %28 = getelementptr inbounds nuw i8, ptr %25, i64 4
  store float %27, ptr %28, align 4, !tbaa !26
  %indvars.iv.next54 = add nuw nsw i64 %indvars.iv53, 1
  %exitcond56.not = icmp eq i64 %indvars.iv.next54, 8
  br i1 %exitcond56.not, label %29, label %21, !llvm.loop !243

29:                                               ; preds = %21
  %indvars.iv.next58 = add nuw nsw i64 %indvars.iv57, 1
  %exitcond61.not = icmp eq i64 %indvars.iv.next58, %wide.trip.count60
  br i1 %exitcond61.not, label %._crit_edge46, label %.preheader, !llvm.loop !244

._crit_edge46:                                    ; preds = %29, %._crit_edge
  ret i32 0
}